; Function Attrs: mustprogress uwtable
define noundef i32 @_ZN12colvarmodule20calc_scripted_forcesEv(ptr nocapture nonnull readnone align 8 %0) local_unnamed_addr #3 align 2 personality ptr @__gxx_personality_v0 {
  %2 = alloca %"class.std::__cxx11::basic_string", align 8
  %3 = alloca %"class.std::allocator", align 1
  %4 = alloca %"class.std::__cxx11::basic_string", align 8
  %5 = alloca %"class.std::allocator", align 1
  %6 = load ptr, ptr @_ZN12colvarmodule5proxyE, align 8
  %7 = getelementptr inbounds i8, ptr %6, i64 800
  %8 = load ptr, ptr %7, align 8
  %9 = getelementptr inbounds i8, ptr %8, i64 16
  %10 = load ptr, ptr %9, align 8
  %11 = tail call noundef i32 %10(ptr noundef nonnull align 8 dereferenceable(17) %7)
  switch i32 %11, label %21 [
    i32 2, label %12
    i32 0, label %30
  ]

12:                                               ; preds = %1
  call void @_ZNSaIcEC1Ev(ptr noundef nonnull align 1 dereferenceable(1) %3) #24
  %13 = invoke noundef ptr @_ZNSt7__cxx1112basic_stringIcSt11char_traitsIcESaIcEE13_M_local_dataEv(ptr noundef nonnull align 8 dereferenceable(32) %2)
          to label %.noexc unwind label %17

.noexc:                                           ; preds = %12
  invoke void @_ZNSt7__cxx1112basic_stringIcSt11char_traitsIcESaIcEE12_Alloc_hiderC1EPcRKS3_(ptr noundef nonnull align 8 dereferenceable(8) %2, ptr noundef %13, ptr noundef nonnull align 1 dereferenceable(1) %3)
          to label %.noexc13 unwind label %17

.noexc13:                                         ; preds = %.noexc
  invoke void @_ZNSt7__cxx1112basic_stringIcSt11char_traitsIcESaIcEE12_M_constructIPKcEEvT_S8_St20forward_iterator_tag(ptr noundef nonnull align 8 dereferenceable(32) %2, ptr noundef nonnull @.str.85, ptr noundef nonnull getelementptr inbounds ([43 x i8], ptr @.str.85, i64 0, i64 42))
          to label %_ZNSt7__cxx1112basic_stringIcSt11char_traitsIcESaIcEEC2IS3_EEPKcRKS3_.exit unwind label %14

14:                                               ; preds = %.noexc13
  %15 = landingpad { ptr, i32 }
          cleanup
  call void @_ZNSaIcED2Ev(ptr noundef nonnull align 1 dereferenceable(1) %2) #24
  br label %.body

_ZNSt7__cxx1112basic_stringIcSt11char_traitsIcESaIcEEC2IS3_EEPKcRKS3_.exit: ; preds = %.noexc13
  %16 = invoke noundef i32 @_ZN12colvarmodule5errorERKNSt7__cxx1112basic_stringIcSt11char_traitsIcESaIcEEEi(ptr noundef nonnull align 8 dereferenceable(32) %2, i32 noundef -1)
          to label %.sink.split unwind label %19

17:                                               ; preds = %.noexc, %12
  %18 = landingpad { ptr, i32 }
          cleanup
  br label %.body

19:                                               ; preds = %_ZNSt7__cxx1112basic_stringIcSt11char_traitsIcESaIcEEC2IS3_EEPKcRKS3_.exit
  %20 = landingpad { ptr, i32 }
          cleanup
  call void @_ZNSt7__cxx1112basic_stringIcSt11char_traitsIcESaIcEED1Ev(ptr noundef nonnull align 8 dereferenceable(32) %2) #24
  br label %.body

21:                                               ; preds = %1
  call void @_ZNSaIcEC1Ev(ptr noundef nonnull align 1 dereferenceable(1) %5) #24
  %22 = invoke noundef ptr @_ZNSt7__cxx1112basic_stringIcSt11char_traitsIcESaIcEE13_M_local_dataEv(ptr noundef nonnull align 8 dereferenceable(32) %4)
          to label %.noexc14 unwind label %26

.noexc14:                                         ; preds = %21
  invoke void @_ZNSt7__cxx1112basic_stringIcSt11char_traitsIcESaIcEE12_Alloc_hiderC1EPcRKS3_(ptr noundef nonnull align 8 dereferenceable(8) %4, ptr noundef %22, ptr noundef nonnull align 1 dereferenceable(1) %5)
          to label %.noexc15 unwind label %26

.noexc15:                                         ; preds = %.noexc14
  invoke void @_ZNSt7__cxx1112basic_stringIcSt11char_traitsIcESaIcEE12_M_constructIPKcEEvT_S8_St20forward_iterator_tag(ptr noundef nonnull align 8 dereferenceable(32) %4, ptr noundef nonnull @.str.86, ptr noundef nonnull getelementptr inbounds ([40 x i8], ptr @.str.86, i64 0, i64 39))
          to label %_ZNSt7__cxx1112basic_stringIcSt11char_traitsIcESaIcEEC2IS3_EEPKcRKS3_.exit18 unwind label %23

23:                                               ; preds = %.noexc15
  %24 = landingpad { ptr, i32 }
          cleanup
  call void @_ZNSaIcED2Ev(ptr noundef nonnull align 1 dereferenceable(1) %4) #24
  br label %.body

_ZNSt7__cxx1112basic_stringIcSt11char_traitsIcESaIcEEC2IS3_EEPKcRKS3_.exit18: ; preds = %.noexc15
  %25 = invoke noundef i32 @_ZN12colvarmodule5errorERKNSt7__cxx1112basic_stringIcSt11char_traitsIcESaIcEEEi(ptr noundef nonnull align 8 dereferenceable(32) %4, i32 noundef -1)
          to label %.sink.split unwind label %28

26:                                               ; preds = %.noexc14, %21
  %27 = landingpad { ptr, i32 }
          cleanup
  br label %.body

28:                                               ; preds = %_ZNSt7__cxx1112basic_stringIcSt11char_traitsIcESaIcEEC2IS3_EEPKcRKS3_.exit18
  %29 = landingpad { ptr, i32 }
          cleanup
  call void @_ZNSt7__cxx1112basic_stringIcSt11char_traitsIcESaIcEED1Ev(ptr noundef nonnull align 8 dereferenceable(32) %4) #24
  br label %.body

.sink.split:                                      ; preds = %_ZNSt7__cxx1112basic_stringIcSt11char_traitsIcESaIcEEC2IS3_EEPKcRKS3_.exit18, %_ZNSt7__cxx1112basic_stringIcSt11char_traitsIcESaIcEEC2IS3_EEPKcRKS3_.exit
  %.sink19 = phi ptr [ %2, %_ZNSt7__cxx1112basic_stringIcSt11char_traitsIcESaIcEEC2IS3_EEPKcRKS3_.exit ], [ %4, %_ZNSt7__cxx1112basic_stringIcSt11char_traitsIcESaIcEEC2IS3_EEPKcRKS3_.exit18 ]
  %.sink = phi ptr [ %3, %_ZNSt7__cxx1112basic_stringIcSt11char_traitsIcESaIcEEC2IS3_EEPKcRKS3_.exit ], [ %5, %_ZNSt7__cxx1112basic_stringIcSt11char_traitsIcESaIcEEC2IS3_EEPKcRKS3_.exit18 ]
  %.07.ph = phi i32 [ 2, %_ZNSt7__cxx1112basic_stringIcSt11char_traitsIcESaIcEEC2IS3_EEPKcRKS3_.exit ], [ 1, %_ZNSt7__cxx1112basic_stringIcSt11char_traitsIcESaIcEEC2IS3_EEPKcRKS3_.exit18 ]
  call void @_ZNSt7__cxx1112basic_stringIcSt11char_traitsIcESaIcEED1Ev(ptr noundef nonnull align 8 dereferenceable(32) %.sink19) #24
  call void @_ZNSaIcED1Ev(ptr noundef nonnull align 1 dereferenceable(1) %.sink) #24
  br label %30

30:                                               ; preds = %.sink.split, %1
  %.07 = phi i32 [ %11, %1 ], [ %.07.ph, %.sink.split ]
  ret i32 %.07

.body:                                            ; preds = %28, %23, %26, %19, %14, %17
  %.sink20 = phi ptr [ %3, %17 ], [ %3, %14 ], [ %3, %19 ], [ %5, %26 ], [ %5, %23 ], [ %5, %28 ]
  %.pn10.pn = phi { ptr, i32 } [ %18, %17 ], [ %15, %14 ], [ %20, %19 ], [ %27, %26 ], [ %24, %23 ], [ %29, %28 ]
  call void @_ZNSaIcED1Ev(ptr noundef nonnull align 1 dereferenceable(1) %.sink20) #24
  resume { ptr, i32 } %.pn10.pn
}